; Function Attrs: mustprogress nofree norecurse nosync nounwind memory(read, argmem: readwrite, inaccessiblemem: none) uwtable
define void @_ZN6icu_7516DateIntervalInfo13parseSkeletonERKNS_13UnicodeStringEPi(ptr nocapture noundef nonnull readonly align 8 dereferenceable(64) %skeleton, ptr nocapture noundef %skeletonFieldWidth) local_unnamed_addr #10 align 2 {
entry:
  %fUnion.i.i = getelementptr inbounds i8, ptr %skeleton, i64 8
  %fLength.i = getelementptr inbounds i8, ptr %skeleton, i64 12
  %invariant.gep = getelementptr i8, ptr %skeletonFieldWidth, i64 -260
  %0 = load i16, ptr %fUnion.i.i, align 8
  %cmp.i.i5 = icmp slt i16 %0, 0
  %1 = ashr i16 %0, 5
  %shr.i.i6 = sext i16 %1 to i32
  %2 = load i32, ptr %fLength.i, align 4
  %cond.i7 = select i1 %cmp.i.i5, i32 %2, i32 %shr.i.i6
  %cmp8 = icmp sgt i32 %cond.i7, 0
  br i1 %cmp8, label %for.body.lr.ph, label %for.end

for.body.lr.ph:                                   ; preds = %entry
  %fBuffer.i.i.i = getelementptr inbounds i8, ptr %skeleton, i64 10
  %fArray.i.i.i = getelementptr inbounds i8, ptr %skeleton, i64 24
  br label %for.body

for.body:                                         ; preds = %for.body.lr.ph, %for.body
  %indvars.iv = phi i64 [ 0, %for.body.lr.ph ], [ %indvars.iv.next, %for.body ]
  %3 = phi i16 [ %0, %for.body.lr.ph ], [ %9, %for.body ]
  %4 = and i16 %3, 2
  %tobool.not.i.i.i = icmp eq i16 %4, 0
  %5 = load ptr, ptr %fArray.i.i.i, align 8
  %cond.i2.i.i = select i1 %tobool.not.i.i.i, ptr %5, ptr %fBuffer.i.i.i
  %arrayidx.i.i = getelementptr inbounds i16, ptr %cond.i2.i.i, i64 %indvars.iv
  %6 = load i16, ptr %arrayidx.i.i, align 2
  %conv = zext i16 %6 to i32
  %sext = shl i32 %conv, 24
  %conv2 = ashr exact i32 %sext, 24
  %7 = sext i32 %conv2 to i64
  %gep = getelementptr i32, ptr %invariant.gep, i64 %7
  %8 = load i32, ptr %gep, align 4
  %inc = add nsw i32 %8, 1
  store i32 %inc, ptr %gep, align 4
  %indvars.iv.next = add nuw nsw i64 %indvars.iv, 1
  %9 = load i16, ptr %fUnion.i.i, align 8
  %cmp.i.i = icmp slt i16 %9, 0
  %10 = ashr i16 %9, 5
  %shr.i.i = sext i16 %10 to i32
  %11 = load i32, ptr %fLength.i, align 4
  %cond.i = select i1 %cmp.i.i, i32 %11, i32 %shr.i.i
  %12 = sext i32 %cond.i to i64
  %cmp = icmp slt i64 %indvars.iv.next, %12
  br i1 %cmp, label %for.body, label %for.end, !llvm.loop !9

for.end:                                          ; preds = %for.body, %entry
  ret void
}